Certificate:
    Data:
        Version: 1 (0x0)
        Serial Number:
            35:75:2c:46:b1:23:5e:d5:11:b6:f4:a4:45:e1:0d:1f:fc:24:f2:a0
        Signature Algorithm: sha256WithRSAEncryption
        Issuer: C = C1, ST = JS1, L = WX1, O = ESP1, OU = ESP1, CN = Server1 CA, emailAddress = ESP1
        Validity
            Not Before: Apr  9 12:29:54 2024 GMT
            Not After : Dec 17 12:29:54 2037 GMT
        Subject: C = C2, ST = JS22, L = WX22, O = ESP22, OU = ESP22, CN = Server22 CA, emailAddress = ESP22
        Subject Public Key Info:
            Public Key Algorithm: rsaEncryption
                Public-Key: (2048 bit)
                Modulus:
                    00:9e:3e:81:99:c6:7c:b6:06:b8:ec:8c:9b:fd:0e:
                    2b:5b:17:a7:e3:e2:df:b9:ad:aa:92:4a:59:96:3f:
                    60:64:5c:eb:7e:34:ec:4e:2e:b1:9d:89:f1:43:7f:
                    6d:e7:b9:3f:c8:1d:55:e8:3d:5e:83:01:fc:4e:72:
                    a7:67:d9:f7:12:2e:8f:b0:30:d2:1d:44:50:f4:bb:
                    83:64:25:dc:67:e9:cb:a2:92:e2:75:79:19:87:23:
                    a3:94:b1:07:3f:09:47:6a:88:61:1d:5c:17:37:e2:
                    a3:3a:db:6e:3d:52:c9:9f:00:04:0a:cc:9a:cf:7b:
                    a8:01:03:fe:c0:17:b8:e5:f0:a9:3f:27:1e:79:81:
                    1c:22:ae:73:a7:96:ce:49:bf:17:bc:15:03:f3:66:
                    48:f5:d7:33:8d:9d:29:15:45:6e:4a:db:66:1f:35:
                    0c:85:f6:fd:5b:28:6e:b3:78:32:31:19:2b:93:9f:
                    41:79:04:d5:bb:94:72:42:b9:ed:fa:7f:61:81:e6:
                    ae:ad:fd:c2:2d:87:48:bb:e7:fd:f3:2d:44:a2:83:
                    17:78:bf:69:d5:27:45:94:06:eb:13:6c:fc:46:ce:
                    2e:00:25:7d:16:db:b2:eb:ee:45:de:75:18:b6:b7:
                    70:93:f2:b8:50:fc:ef:05:ad:bc:00:bd:14:d2:16:
                    44:c5
                Exponent: 65537 (0x10001)
    Signature Algorithm: sha256WithRSAEncryption
    Signature Value:
        1b:89:49:64:14:86:d8:53:b5:1a:f7:e9:45:c5:46:9e:5f:59:
        c8:e0:0d:96:88:d0:f0:e3:0a:16:67:f3:38:a5:89:00:77:c2:
        7e:ea:2d:f5:39:46:e2:04:94:1d:0a:bd:de:93:4e:dd:9d:51:
        db:68:63:c1:fe:42:7b:04:6e:b0:35:f1:7c:00:2b:4e:58:15:
        20:ea:fa:28:f7:66:f7:c9:ff:aa:03:9e:88:4c:e2:b4:c4:7e:
        8e:58:e0:b8:32:ad:27:ba:c2:ca:33:06:53:89:e8:36:33:0e:
        c5:0c:e9:2b:2b:64:5c:93:f0:cd:19:a0:93:f9:65:91:a8:3b:
        9c:b3:ca:6c:f4:47:23:45:21:99:bd:8c:ac:bf:5e:20:3e:cd:
        33:c7:77:1e:f6:0e:a4:08:45:21:d0:21:14:36:59:a0:42:9a:
        42:04:4c:d3:99:25:a8:1f:69:31:79:16:86:14:20:25:fe:c6:
        d6:c8:3f:c8:7e:33:8e:e7:5d:13:0d:14:dc:27:bd:ea:d8:b9:
        7c:0d:0d:38:73:47:c1:1d:e7:b8:95:3f:bb:47:5a:27:0b:d5:
        75:2b:0f:bc:0d:e2:0b:4c:76:a8:ff:89:58:c7:88:f4:a3:c8:
        9b:27:aa:3f:99:97:d6:ef:46:b6:28:24:2b:bd:9e:5d:b4:fd:
        d7:e8:18:0c
-----BEGIN CERTIFICATE-----
MIIDbzCCAlcCFDV1LEaxI17VEbb0pEXhDR/8JPKgMA0GCSqGSIb3DQEBCwUAMHEx
CzAJBgNVBAYTAkMxMQwwCgYDVQQIDANKUzExDDAKBgNVBAcMA1dYMTENMAsGA1UE
CgwERVNQMTENMAsGA1UECwwERVNQMTETMBEGA1UEAwwKU2VydmVyMSBDQTETMBEG
CSqGSIb3DQEJARYERVNQMTAeFw0yNDA0MDkxMjI5NTRaFw0zNzEyMTcxMjI5NTRa
MHcxCzAJBgNVBAYTAkMyMQ0wCwYDVQQIDARKUzIyMQ0wCwYDVQQHDARXWDIyMQ4w
DAYDVQQKDAVFU1AyMjEOMAwGA1UECwwFRVNQMjIxFDASBgNVBAMMC1NlcnZlcjIy
IENBMRQwEgYJKoZIhvcNAQkBFgVFU1AyMjCCASIwDQYJKoZIhvcNAQEBBQADggEP
ADCCAQoCggEBAJ4+gZnGfLYGuOyMm/0OK1sXp+Pi37mtqpJKWZY/YGRc63407E4u
sZ2J8UN/bee5P8gdVeg9XoMB/E5yp2fZ9xIuj7Aw0h1EUPS7g2Ql3Gfpy6KS4nV5
GYcjo5SxBz8JR2qIYR1cFzfiozrbbj1SyZ8ABArMms97qAED/sAXuOXwqT8nHnmB
HCKuc6eWzkm/F7wVA/NmSPXXM42dKRVFbkrbZh81DIX2/VsobrN4MjEZK5OfQXkE
1buUckK57fp/YYHmrq39wi2HSLvn/fMtRKKDF3i/adUnRZQG6xNs/EbOLgAlfRbb
suvuRd51GLa3cJPyuFD87wWtvAC9FNIWRMUCAwEAATANBgkqhkiG9w0BAQsFAAOC
AQEAG4lJZBSG2FO1GvfpRcVGnl9ZyOANlojQ8OMKFmfzOKWJAHfCfuot9TlG4gSU
HQq93pNO3Z1R22hjwf5CewRusDXxfAArTlgVIOr6KPdm98n/qgOeiEzitMR+jljg
uDKtJ7rCyjMGU4noNjMOxQzpKytkXJPwzRmgk/llkag7nLPKbPRHI0Uhmb2MrL9e
ID7NM8d3HvYOpAhFIdAhFDZZoEKaQgRM05klqB9pMXkWhhQgJf7G1sg/yH4zjudd
Ew0U3Ce96ti5fA0NOHNHwR3nuJU/u0daJwvVdSsPvA3iC0x2qP+JWMeI9KPImyeq
P5mX1u9GtigkK72eXbT91+gYDA==
-----END CERTIFICATE-----
